target datalayout = "e-m:e-p270:32:32-p271:32:32-p272:64:64-i64:64-i128:128-f80:128-n8:16:32:64-S128"
target triple = "x86_64-pc-linux-gnu"

%"class.boost::intrusive_ptr" = type { ptr }
%"class.boost::sp_adl_block::intrusive_ref_counter" = type { %"class.boost::detail::atomic_count" }
%"class.boost::detail::atomic_count" = type { i32 }
%"class.boost::log::v2_mt_posix::attribute" = type { %"class.boost::intrusive_ptr" }
%"class.boost::log::v2_mt_posix::attributes::cast_source" = type { ptr }

; Function Attrs: mustprogress nounwind uwtable
define linkonce_odr hidden noundef i64 @_ZN5boost6detail12atomic_countmmEv(ptr noundef nonnull align 4 dereferenceable(4) %0) #3 comdat align 2 {
  %2 = alloca ptr, align 8
  %3 = alloca i32, align 4
  %4 = alloca i32, align 4
  store ptr %0, ptr %2, align 8, !tbaa !3
  %5 = load ptr, ptr %2, align 8
  %6 = getelementptr inbounds nuw %"class.boost::detail::atomic_count", ptr %5, i32 0, i32 0
  store i32 -1, ptr %3, align 4, !tbaa !25
  %7 = load i32, ptr %3, align 4
  %8 = atomicrmw add ptr %6, i32 %7 acq_rel, align 4
  %9 = add i32 %8, %7
  store i32 %9, ptr %4, align 4
  %10 = load i32, ptr %4, align 4, !tbaa !25
  %11 = sext i32 %10 to i64
  ret i64 %11
}

; Function Attrs: noinline noreturn nounwind uwtable
define linkonce_odr hidden void @__clang_call_terminate(ptr noundef %0) #5 comdat {
  %2 = call ptr @__cxa_begin_catch(ptr %0) #17
  call void @_ZSt9terminatev() #18
  unreachable
}

; Function Attrs: mustprogress nounwind uwtable
define linkonce_odr hidden noundef i64 @_ZN5boost6detail12atomic_countppEv(ptr noundef nonnull align 4 dereferenceable(4) %0) #3 comdat align 2 {
  %2 = alloca ptr, align 8
  %3 = alloca i32, align 4
  %4 = alloca i32, align 4
  store ptr %0, ptr %2, align 8, !tbaa !3
  %5 = load ptr, ptr %2, align 8
  %6 = getelementptr inbounds nuw %"class.boost::detail::atomic_count", ptr %5, i32 0, i32 0
  store i32 1, ptr %3, align 4, !tbaa !25
  %7 = load i32, ptr %3, align 4
  %8 = atomicrmw add ptr %6, i32 %7 acq_rel, align 4
  %9 = add i32 %8, %7
  store i32 %9, ptr %4, align 4
  %10 = load i32, ptr %4, align 4, !tbaa !25
  %11 = sext i32 %10 to i64
  ret i64 %11
}

; Function Attrs: mustprogress nounwind uwtable
define linkonce_odr hidden noundef i32 @_ZN5boost12sp_adl_block19thread_safe_counter9decrementERNS_6detail12atomic_countE(ptr noundef nonnull align 4 dereferenceable(4) %0) #3 comdat align 2 personality ptr @__gxx_personality_v0 {
  %2 = alloca ptr, align 8
  store ptr %0, ptr %2, align 8, !tbaa !3
  %3 = load ptr, ptr %2, align 8, !tbaa !3
  %4 = invoke noundef i64 @_ZN5boost6detail12atomic_countmmEv(ptr noundef nonnull align 4 dereferenceable(4) %3)
          to label %5 unwind label %7

5:                                                ; preds = %1
  %6 = trunc i64 %4 to i32
  ret i32 %6

7:                                                ; preds = %1
  %8 = landingpad { ptr, i32 }
          catch ptr null
  %9 = extractvalue { ptr, i32 } %8, 0
  call void @__clang_call_terminate(ptr %9) #18
  unreachable
}

; Function Attrs: mustprogress nounwind uwtable
define linkonce_odr hidden void @_ZN5boost12sp_adl_block19thread_safe_counter9incrementERNS_6detail12atomic_countE(ptr noundef nonnull align 4 dereferenceable(4) %0) #3 comdat align 2 personality ptr @__gxx_personality_v0 {
  %2 = alloca ptr, align 8
  store ptr %0, ptr %2, align 8, !tbaa !3
  %3 = load ptr, ptr %2, align 8, !tbaa !3
  %4 = invoke noundef i64 @_ZN5boost6detail12atomic_countppEv(ptr noundef nonnull align 4 dereferenceable(4) %3)
          to label %5 unwind label %6

5:                                                ; preds = %1
  ret void

6:                                                ; preds = %1
  %7 = landingpad { ptr, i32 }
          catch ptr null
  %8 = extractvalue { ptr, i32 } %7, 0
  call void @__clang_call_terminate(ptr %8) #18
  unreachable
}

; Function Attrs: inlinehint mustprogress nounwind uwtable
define linkonce_odr hidden void @_ZN5boost12sp_adl_block21intrusive_ptr_releaseINS_3log11v2_mt_posix9attribute4implENS0_19thread_safe_counterEEEvPKNS0_21intrusive_ref_counterIT_T0_EE(ptr noundef %0) #4 comdat {
  %2 = alloca ptr, align 8
  store ptr %0, ptr %2, align 8, !tbaa !3
  %3 = load ptr, ptr %2, align 8, !tbaa !3
  %4 = getelementptr inbounds nuw %"class.boost::sp_adl_block::intrusive_ref_counter", ptr %3, i32 0, i32 0
  %5 = call noundef i32 @_ZN5boost12sp_adl_block19thread_safe_counter9decrementERNS_6detail12atomic_countE(ptr noundef nonnull align 4 dereferenceable(4) %4) #17
  %6 = icmp eq i32 %5, 0
  br i1 %6, label %7, label %21

7:                                                ; preds = %1
  %8 = load ptr, ptr %2, align 8, !tbaa !3
  %9 = icmp eq ptr %8, null
  br i1 %9, label %12, label %10

10:                                               ; preds = %7
  %11 = getelementptr inbounds i8, ptr %8, i64 -8
  br label %13

12:                                               ; preds = %7
  br label %13

13:                                               ; preds = %12, %10
  %14 = phi ptr [ %11, %10 ], [ null, %12 ]
  %15 = icmp eq ptr %14, null
  br i1 %15, label %20, label %16

16:                                               ; preds = %13
  %17 = load ptr, ptr %14, align 8, !tbaa !7
  %18 = getelementptr inbounds ptr, ptr %17, i64 1
  %19 = load ptr, ptr %18, align 8
  call void %19(ptr noundef nonnull align 8 dereferenceable(12) %14) #17
  br label %20

20:                                               ; preds = %16, %13
  br label %21

21:                                               ; preds = %20, %1
  ret void
}

; Function Attrs: mustprogress nounwind uwtable
define linkonce_odr hidden void @_ZN5boost13intrusive_ptrINS_3log11v2_mt_posix9attribute4implEE4swapERS5_(ptr noundef nonnull align 8 dereferenceable(8) %0, ptr noundef nonnull align 8 dereferenceable(8) %1) #3 comdat align 2 {
  %3 = alloca ptr, align 8
  %4 = alloca ptr, align 8
  %5 = alloca ptr, align 8
  store ptr %0, ptr %3, align 8, !tbaa !3
  store ptr %1, ptr %4, align 8, !tbaa !3
  %6 = load ptr, ptr %3, align 8
  call void @llvm.lifetime.start.p0(i64 8, ptr %5) #17
  %7 = getelementptr inbounds nuw %"class.boost::intrusive_ptr", ptr %6, i32 0, i32 0
  %8 = load ptr, ptr %7, align 8, !tbaa !11
  store ptr %8, ptr %5, align 8, !tbaa !3
  %9 = load ptr, ptr %4, align 8, !tbaa !3
  %10 = getelementptr inbounds nuw %"class.boost::intrusive_ptr", ptr %9, i32 0, i32 0
  %11 = load ptr, ptr %10, align 8, !tbaa !11
  %12 = getelementptr inbounds nuw %"class.boost::intrusive_ptr", ptr %6, i32 0, i32 0
  store ptr %11, ptr %12, align 8, !tbaa !11
  %13 = load ptr, ptr %5, align 8, !tbaa !3
  %14 = load ptr, ptr %4, align 8, !tbaa !3
  %15 = getelementptr inbounds nuw %"class.boost::intrusive_ptr", ptr %14, i32 0, i32 0
  store ptr %13, ptr %15, align 8, !tbaa !11
  call void @llvm.lifetime.end.p0(i64 8, ptr %5) #17
  ret void
}

; Function Attrs: mustprogress nounwind uwtable
define linkonce_odr hidden void @_ZN5boost13intrusive_ptrINS_3log11v2_mt_posix9attribute4implEEC2Ev(ptr noundef nonnull align 8 dereferenceable(8) %0) unnamed_addr #3 comdat align 2 {
  %2 = alloca ptr, align 8
  store ptr %0, ptr %2, align 8, !tbaa !3
  %3 = load ptr, ptr %2, align 8
  %4 = getelementptr inbounds nuw %"class.boost::intrusive_ptr", ptr %3, i32 0, i32 0
  store ptr null, ptr %4, align 8, !tbaa !11
  ret void
}

; Function Attrs: inlinehint mustprogress nounwind uwtable
define linkonce_odr hidden void @_ZN5boost12sp_adl_block21intrusive_ptr_add_refINS_3log11v2_mt_posix9attribute4implENS0_19thread_safe_counterEEEvPKNS0_21intrusive_ref_counterIT_T0_EE(ptr noundef %0) #4 comdat {
  %2 = alloca ptr, align 8
  store ptr %0, ptr %2, align 8, !tbaa !3
  %3 = load ptr, ptr %2, align 8, !tbaa !3
  %4 = getelementptr inbounds nuw %"class.boost::sp_adl_block::intrusive_ref_counter", ptr %3, i32 0, i32 0
  call void @_ZN5boost12sp_adl_block19thread_safe_counter9incrementERNS_6detail12atomic_countE(ptr noundef nonnull align 4 dereferenceable(4) %4) #17
  ret void
}

; Function Attrs: mustprogress nounwind uwtable
define linkonce_odr hidden void @_ZN5boost13intrusive_ptrINS_3log11v2_mt_posix9attribute4implEED2Ev(ptr noundef nonnull align 8 dereferenceable(8) %0) unnamed_addr #3 comdat align 2 {
  %2 = alloca ptr, align 8
  store ptr %0, ptr %2, align 8, !tbaa !3
  %3 = load ptr, ptr %2, align 8
  %4 = getelementptr inbounds nuw %"class.boost::intrusive_ptr", ptr %3, i32 0, i32 0
  %5 = load ptr, ptr %4, align 8, !tbaa !11
  %6 = icmp ne ptr %5, null
  br i1 %6, label %7, label %15

7:                                                ; preds = %1
  %8 = getelementptr inbounds nuw %"class.boost::intrusive_ptr", ptr %3, i32 0, i32 0
  %9 = load ptr, ptr %8, align 8, !tbaa !11
  %10 = icmp eq ptr %9, null
  br i1 %10, label %13, label %11

11:                                               ; preds = %7
  %12 = getelementptr inbounds i8, ptr %9, i64 8
  br label %13

13:                                               ; preds = %11, %7
  %14 = phi ptr [ %12, %11 ], [ null, %7 ]
  call void @_ZN5boost12sp_adl_block21intrusive_ptr_releaseINS_3log11v2_mt_posix9attribute4implENS0_19thread_safe_counterEEEvPKNS0_21intrusive_ref_counterIT_T0_EE(ptr noundef %14) #17
  br label %15

15:                                               ; preds = %13, %1
  ret void
}

; Function Attrs: mustprogress nounwind uwtable
define linkonce_odr hidden void @_ZN5boost3log11v2_mt_posix9attributeC2ENS_13intrusive_ptrINS2_4implEEE(ptr noundef nonnull align 8 dereferenceable(8) %0, ptr noundef %1) unnamed_addr #3 comdat align 2 {
  %3 = alloca ptr, align 8
  %4 = alloca ptr, align 8
  store ptr %0, ptr %3, align 8, !tbaa !3
  store ptr %1, ptr %4, align 8, !tbaa !3
  %5 = load ptr, ptr %3, align 8
  %6 = getelementptr inbounds nuw %"class.boost::log::v2_mt_posix::attribute", ptr %5, i32 0, i32 0
  call void @_ZN5boost13intrusive_ptrINS_3log11v2_mt_posix9attribute4implEEC2Ev(ptr noundef nonnull align 8 dereferenceable(8) %6) #17
  %7 = getelementptr inbounds nuw %"class.boost::log::v2_mt_posix::attribute", ptr %5, i32 0, i32 0
  call void @_ZN5boost13intrusive_ptrINS_3log11v2_mt_posix9attribute4implEE4swapERS5_(ptr noundef nonnull align 8 dereferenceable(8) %7, ptr noundef nonnull align 8 dereferenceable(8) %1) #17
  ret void
}

; Function Attrs: mustprogress nounwind uwtable
define linkonce_odr hidden void @_ZN5boost13intrusive_ptrINS_3log11v2_mt_posix9attribute4implEEC2EPS4_b(ptr noundef nonnull align 8 dereferenceable(8) %0, ptr noundef %1, i1 noundef zeroext %2) unnamed_addr #3 comdat align 2 {
  %4 = alloca ptr, align 8
  %5 = alloca ptr, align 8
  %6 = alloca i8, align 1
  store ptr %0, ptr %4, align 8, !tbaa !3
  store ptr %1, ptr %5, align 8, !tbaa !3
  %7 = zext i1 %2 to i8
  store i8 %7, ptr %6, align 1, !tbaa !9
  %8 = load ptr, ptr %4, align 8
  %9 = getelementptr inbounds nuw %"class.boost::intrusive_ptr", ptr %8, i32 0, i32 0
  %10 = load ptr, ptr %5, align 8, !tbaa !3
  store ptr %10, ptr %9, align 8, !tbaa !11
  %11 = getelementptr inbounds nuw %"class.boost::intrusive_ptr", ptr %8, i32 0, i32 0
  %12 = load ptr, ptr %11, align 8, !tbaa !11
  %13 = icmp ne ptr %12, null
  br i1 %13, label %14, label %25

14:                                               ; preds = %3
  %15 = load i8, ptr %6, align 1, !tbaa !9, !range !13, !noundef !14
  %16 = trunc i8 %15 to i1
  br i1 %16, label %17, label %25

17:                                               ; preds = %14
  %18 = getelementptr inbounds nuw %"class.boost::intrusive_ptr", ptr %8, i32 0, i32 0
  %19 = load ptr, ptr %18, align 8, !tbaa !11
  %20 = icmp eq ptr %19, null
  br i1 %20, label %23, label %21

21:                                               ; preds = %17
  %22 = getelementptr inbounds i8, ptr %19, i64 8
  br label %23

23:                                               ; preds = %21, %17
  %24 = phi ptr [ %22, %21 ], [ null, %17 ]
  call void @_ZN5boost12sp_adl_block21intrusive_ptr_add_refINS_3log11v2_mt_posix9attribute4implENS0_19thread_safe_counterEEEvPKNS0_21intrusive_ref_counterIT_T0_EE(ptr noundef %24) #17
  br label %25

25:                                               ; preds = %23, %14, %3
  ret void
}

; Function Attrs: mustprogress nounwind uwtable
define linkonce_odr hidden noundef ptr @_ZNK5boost3log11v2_mt_posix10attributes11cast_source2asINS2_5timer4implEEEPT_v(ptr noundef nonnull align 8 dereferenceable(8) %0) #3 comdat align 2 {
  %2 = alloca ptr, align 8
  store ptr %0, ptr %2, align 8, !tbaa !3
  %3 = load ptr, ptr %2, align 8
  %4 = getelementptr inbounds nuw %"class.boost::log::v2_mt_posix::attributes::cast_source", ptr %3, i32 0, i32 0
  %5 = load ptr, ptr %4, align 8, !tbaa !15
  %6 = icmp eq ptr %5, null
  br i1 %6, label %9, label %7

7:                                                ; preds = %1
  %8 = call ptr @__dynamic_cast(ptr %5, ptr @_ZTIN5boost3log11v2_mt_posix9attribute4implE, ptr @_ZTIN5boost3log11v2_mt_posix10attributes5timer4implE, i64 0) #17
  br label %10

9:                                                ; preds = %1
  br label %10

10:                                               ; preds = %9, %7
  %11 = phi ptr [ %8, %7 ], [ null, %9 ]
  ret ptr %11
}

; Function Attrs: mustprogress uwtable
define void @_ZN5boost3log11v2_mt_posix10attributes5timerC2ERKNS2_11cast_sourceE(ptr noundef nonnull align 8 dereferenceable(8) %0, ptr noundef nonnull align 8 dereferenceable(8) %1) unnamed_addr #0 align 2 {
  %3 = alloca ptr, align 8
  %4 = alloca ptr, align 8
  %5 = alloca %"class.boost::intrusive_ptr", align 8
  store ptr %0, ptr %3, align 8, !tbaa !3
  store ptr %1, ptr %4, align 8, !tbaa !3
  %6 = load ptr, ptr %3, align 8
  %7 = load ptr, ptr %4, align 8, !tbaa !3
  %8 = call noundef ptr @_ZNK5boost3log11v2_mt_posix10attributes11cast_source2asINS2_5timer4implEEEPT_v(ptr noundef nonnull align 8 dereferenceable(8) %7)
  call void @_ZN5boost13intrusive_ptrINS_3log11v2_mt_posix9attribute4implEEC2EPS4_b(ptr noundef nonnull align 8 dereferenceable(8) %5, ptr noundef %8, i1 noundef zeroext true)
  call void @_ZN5boost3log11v2_mt_posix9attributeC2ENS_13intrusive_ptrINS2_4implEEE(ptr noundef nonnull align 8 dereferenceable(8) %6, ptr noundef %5) #17
  call void @_ZN5boost13intrusive_ptrINS_3log11v2_mt_posix9attribute4implEED2Ev(ptr noundef nonnull align 8 dereferenceable(8) %5) #17
  ret void
}