; Function Attrs: mustprogress nofree nounwind willreturn memory(readwrite, inaccessiblemem: read) uwtable
define void @_ZN5boost3log11v2_mt_posix10attributes5timerC2ERKNS2_11cast_sourceE(ptr nocapture noundef nonnull writeonly align 8 dereferenceable(8) %0, ptr nocapture noundef nonnull readonly align 8 dereferenceable(8) %1) unnamed_addr #3 align 2 personality ptr @__gxx_personality_v0 {
  %3 = load ptr, ptr %1, align 8, !tbaa !13
  %4 = icmp eq ptr %3, null
  br i1 %4, label %_ZN5boost13intrusive_ptrINS_3log11v2_mt_posix9attribute4implEED2Ev.exit, label %_ZNK5boost3log11v2_mt_posix10attributes11cast_source2asINS2_5timer4implEEEPT_v.exit

_ZNK5boost3log11v2_mt_posix10attributes11cast_source2asINS2_5timer4implEEEPT_v.exit: ; preds = %2
  %5 = tail call ptr @__dynamic_cast(ptr nonnull %3, ptr nonnull @_ZTIN5boost3log11v2_mt_posix9attribute4implE, ptr nonnull @_ZTIN5boost3log11v2_mt_posix10attributes5timer4implE, i64 0) #24
  %.not.i.not = icmp eq ptr %5, null
  br i1 %.not.i.not, label %_ZN5boost13intrusive_ptrINS_3log11v2_mt_posix9attribute4implEED2Ev.exit, label %6

6:                                                ; preds = %_ZNK5boost3log11v2_mt_posix10attributes11cast_source2asINS2_5timer4implEEEPT_v.exit
  %7 = getelementptr inbounds i8, ptr %5, i64 8
  %8 = atomicrmw add ptr %7, i32 1 acq_rel, align 4
  br label %_ZN5boost13intrusive_ptrINS_3log11v2_mt_posix9attribute4implEED2Ev.exit

_ZN5boost13intrusive_ptrINS_3log11v2_mt_posix9attribute4implEED2Ev.exit: ; preds = %2, %6, %_ZNK5boost3log11v2_mt_posix10attributes11cast_source2asINS2_5timer4implEEEPT_v.exit
  %9 = phi ptr [ null, %_ZNK5boost3log11v2_mt_posix10attributes11cast_source2asINS2_5timer4implEEEPT_v.exit ], [ %5, %6 ], [ null, %2 ]
  store ptr %9, ptr %0, align 8, !tbaa !10
  ret void
}